; Function Attrs: mustprogress nounwind uwtable
define internal fastcc noundef zeroext i1 @_ZN12_GLOBAL__N_110MasmParser23parseDirectiveCFIEscapeEN4llvm5SMLocE(ptr noundef nonnull align 8 dereferenceable(1144) %0, ptr %1) unnamed_addr #0 align 2 {
  %3 = alloca %"class.std::__cxx11::basic_string", align 8
  %4 = alloca i64, align 8
  call void @_ZNSt7__cxx1112basic_stringIcSt11char_traitsIcESaIcEEC1Ev(ptr noundef nonnull align 8 dereferenceable(32) %3) #24
  %5 = load ptr, ptr %0, align 8
  %6 = getelementptr inbounds nuw i8, ptr %5, i64 256
  %7 = load ptr, ptr %6, align 8
  %8 = call noundef zeroext i1 %7(ptr noundef nonnull align 8 dereferenceable(1144) %0, ptr noundef nonnull align 8 dereferenceable(8) %4) #24
  br i1 %8, label %.loopexit, label %9

9:                                                ; preds = %2
  %10 = load i64, ptr %4, align 8
  %11 = trunc i64 %10 to i8
  call void @_ZNSt7__cxx1112basic_stringIcSt11char_traitsIcESaIcEE9push_backEc(ptr noundef nonnull align 8 dereferenceable(32) %3, i8 noundef signext %11) #24
  %12 = load ptr, ptr %0, align 8
  %13 = getelementptr inbounds nuw i8, ptr %12, i64 40
  %14 = load ptr, ptr %13, align 8
  %15 = call noundef nonnull align 8 dereferenceable(144) ptr %14(ptr noundef nonnull align 8 dereferenceable(1144) %0) #24
  %16 = getelementptr inbounds nuw i8, ptr %15, i64 8
  %17 = load ptr, ptr %16, align 8
  %18 = load i32, ptr %17, align 8
  %19 = icmp eq i32 %18, 26
  br i1 %19, label %.lr.ph, label %._crit_edge

.lr.ph:                                           ; preds = %9, %28
  %20 = load ptr, ptr %0, align 8
  %21 = getelementptr inbounds nuw i8, ptr %20, i64 184
  %22 = load ptr, ptr %21, align 8
  %23 = call noundef nonnull align 8 dereferenceable(40) ptr %22(ptr noundef nonnull align 8 dereferenceable(1144) %0) #24
  %24 = load ptr, ptr %0, align 8
  %25 = getelementptr inbounds nuw i8, ptr %24, i64 256
  %26 = load ptr, ptr %25, align 8
  %27 = call noundef zeroext i1 %26(ptr noundef nonnull align 8 dereferenceable(1144) %0, ptr noundef nonnull align 8 dereferenceable(8) %4) #24
  br i1 %27, label %.loopexit, label %28

28:                                               ; preds = %.lr.ph
  %29 = load i64, ptr %4, align 8
  %30 = trunc i64 %29 to i8
  call void @_ZNSt7__cxx1112basic_stringIcSt11char_traitsIcESaIcEE9push_backEc(ptr noundef nonnull align 8 dereferenceable(32) %3, i8 noundef signext %30) #24
  %31 = load ptr, ptr %0, align 8
  %32 = getelementptr inbounds nuw i8, ptr %31, i64 40
  %33 = load ptr, ptr %32, align 8
  %34 = call noundef nonnull align 8 dereferenceable(144) ptr %33(ptr noundef nonnull align 8 dereferenceable(1144) %0) #24
  %35 = getelementptr inbounds nuw i8, ptr %34, i64 8
  %36 = load ptr, ptr %35, align 8
  %37 = load i32, ptr %36, align 8
  %38 = icmp eq i32 %37, 26
  br i1 %38, label %.lr.ph, label %._crit_edge, !llvm.loop !463

._crit_edge:                                      ; preds = %28, %9
  %39 = load ptr, ptr %0, align 8
  %40 = getelementptr inbounds nuw i8, ptr %39, i64 56
  %41 = load ptr, ptr %40, align 8
  %42 = call noundef nonnull align 8 dereferenceable(288) ptr %41(ptr noundef nonnull align 8 dereferenceable(1144) %0) #24
  %43 = call noundef ptr @_ZNKSt7__cxx1112basic_stringIcSt11char_traitsIcESaIcEE4dataEv(ptr noundef nonnull align 8 dereferenceable(32) %3) #24
  %44 = call noundef i64 @_ZNKSt7__cxx1112basic_stringIcSt11char_traitsIcESaIcEE6lengthEv(ptr noundef nonnull align 8 dereferenceable(32) %3) #24
  %45 = load ptr, ptr %42, align 8
  %46 = getelementptr inbounds nuw i8, ptr %45, i64 984
  %47 = load ptr, ptr %46, align 8
  call void %47(ptr noundef nonnull align 8 dereferenceable(288) %42, ptr %43, i64 %44, ptr %1) #24
  br label %.loopexit

.loopexit:                                        ; preds = %.lr.ph, %2, %._crit_edge
  %.0 = phi i1 [ false, %._crit_edge ], [ true, %2 ], [ true, %.lr.ph ]
  call void @_ZNSt7__cxx1112basic_stringIcSt11char_traitsIcESaIcEED1Ev(ptr noundef nonnull align 8 dereferenceable(32) %3) #24
  ret i1 %.0
}